; Function Attrs: nounwind uwtable
define hidden ptr @PEM_ASN1_read(ptr noundef %0, ptr noundef %1, ptr noundef %2, ptr noundef %3, ptr noundef %4, ptr noundef %5) local_unnamed_addr #0 {
  %7 = tail call ptr @BIO_s_file() #12
  %8 = tail call ptr @BIO_new(ptr noundef %7) #12
  %9 = icmp eq ptr %8, null
  br i1 %9, label %10, label %11

10:                                               ; preds = %6
  tail call void @ERR_put_error(i32 noundef 9, i32 noundef 0, i32 noundef 7, ptr noundef nonnull @.str.8, i32 noundef 125) #12
  br label %15

11:                                               ; preds = %6
  %12 = tail call i32 @BIO_set_fp(ptr noundef nonnull %8, ptr noundef %2, i32 noundef 0) #12
  %13 = tail call ptr @PEM_ASN1_read_bio(ptr noundef %0, ptr noundef %1, ptr noundef nonnull %8, ptr noundef %3, ptr noundef %4, ptr noundef %5) #12
  %14 = tail call i32 @BIO_free(ptr noundef nonnull %8) #12
  br label %15

15:                                               ; preds = %11, %10
  %.0 = phi ptr [ null, %10 ], [ %13, %11 ]
  ret ptr %.0
}